; ModuleID = 'source-C-CXX/36/552.c'
source_filename = "source-C-CXX/36/552.c"
target datalayout = "e-m:e-p270:32:32-p271:32:32-p272:64:64-i64:64-f80:128-n8:16:32:64-S128"
target triple = "x86_64-pc-linux-gnu"

@.str = private unnamed_addr constant [3 x i8] c"%d\00", align 1
@.str.1 = private unnamed_addr constant [3 x i8] c"%s\00", align 1
@.str.2 = private unnamed_addr constant [4 x i8] c"%c\0A\00", align 1
@str = private unnamed_addr constant [3 x i8] c"no\00", align 1

; Function Attrs: nofree nounwind sspstrong uwtable
define dso_local i32 @main() local_unnamed_addr #0 {
  %1 = alloca i32, align 4
  %2 = alloca [1001 x i8], align 16
  %3 = alloca [27 x i32], align 16
  %4 = bitcast i32* %1 to i8*
  call void @llvm.lifetime.start.p0i8(i64 4, i8* nonnull %4) #6
  %5 = getelementptr inbounds [1001 x i8], [1001 x i8]* %2, i64 0, i64 0
  call void @llvm.lifetime.start.p0i8(i64 1001, i8* nonnull %5) #6
  %6 = call i32 (i8*, ...) @__isoc99_scanf(i8* getelementptr inbounds ([3 x i8], [3 x i8]* @.str, i64 0, i64 0), i32* nonnull %1)
  %7 = bitcast [27 x i32]* %3 to i8*
  %8 = load i32, i32* %1, align 4, !tbaa !5
  %9 = icmp sgt i32 %8, 0
  br i1 %9, label %10, label %74

10:                                               ; preds = %0, %70
  %11 = phi i32 [ %71, %70 ], [ 0, %0 ]
  call void @llvm.lifetime.start.p0i8(i64 108, i8* nonnull %7) #6
  call void @llvm.memset.p0i8.i64(i8* noundef nonnull align 16 dereferenceable(108) %7, i8 0, i64 108, i1 false)
  %12 = call i32 (i8*, ...) @__isoc99_scanf(i8* getelementptr inbounds ([3 x i8], [3 x i8]* @.str.1, i64 0, i64 0), i8* nonnull %5)
  %13 = call i64 @strlen(i8* noundef nonnull %5) #7
  %14 = icmp eq i64 %13, 0
  br i1 %14, label %68, label %15

15:                                               ; preds = %10
  %16 = and i64 %13, 1
  %17 = icmp eq i64 %13, 1
  br i1 %17, label %20, label %18

18:                                               ; preds = %15
  %19 = and i64 %13, -2
  br label %32

20:                                               ; preds = %32, %15
  %21 = phi i64 [ 0, %15 ], [ %50, %32 ]
  %22 = icmp eq i64 %16, 0
  br i1 %22, label %31, label %23

23:                                               ; preds = %20
  %24 = getelementptr inbounds [1001 x i8], [1001 x i8]* %2, i64 0, i64 %21
  %25 = load i8, i8* %24, align 1, !tbaa !9
  %26 = sext i8 %25 to i64
  %27 = add nsw i64 %26, -97
  %28 = getelementptr inbounds [27 x i32], [27 x i32]* %3, i64 0, i64 %27
  %29 = load i32, i32* %28, align 4, !tbaa !5
  %30 = add nsw i32 %29, 1
  store i32 %30, i32* %28, align 4, !tbaa !5
  br label %31

31:                                               ; preds = %20, %23
  br i1 %14, label %68, label %55

32:                                               ; preds = %32, %18
  %33 = phi i64 [ 0, %18 ], [ %50, %32 ]
  %34 = phi i64 [ %19, %18 ], [ %51, %32 ]
  %35 = getelementptr inbounds [1001 x i8], [1001 x i8]* %2, i64 0, i64 %33
  %36 = load i8, i8* %35, align 2, !tbaa !9
  %37 = sext i8 %36 to i64
  %38 = add nsw i64 %37, -97
  %39 = getelementptr inbounds [27 x i32], [27 x i32]* %3, i64 0, i64 %38
  %40 = load i32, i32* %39, align 4, !tbaa !5
  %41 = add nsw i32 %40, 1
  store i32 %41, i32* %39, align 4, !tbaa !5
  %42 = or i64 %33, 1
  %43 = getelementptr inbounds [1001 x i8], [1001 x i8]* %2, i64 0, i64 %42
  %44 = load i8, i8* %43, align 1, !tbaa !9
  %45 = sext i8 %44 to i64
  %46 = add nsw i64 %45, -97
  %47 = getelementptr inbounds [27 x i32], [27 x i32]* %3, i64 0, i64 %46
  %48 = load i32, i32* %47, align 4, !tbaa !5
  %49 = add nsw i32 %48, 1
  store i32 %49, i32* %47, align 4, !tbaa !5
  %50 = add nuw nsw i64 %33, 2
  %51 = add i64 %34, -2
  %52 = icmp eq i64 %51, 0
  br i1 %52, label %20, label %32, !llvm.loop !10

53:                                               ; preds = %55
  %54 = icmp eq i64 %64, %13
  br i1 %54, label %68, label %55, !llvm.loop !12

55:                                               ; preds = %31, %53
  %56 = phi i64 [ %64, %53 ], [ 0, %31 ]
  %57 = getelementptr inbounds [1001 x i8], [1001 x i8]* %2, i64 0, i64 %56
  %58 = load i8, i8* %57, align 1, !tbaa !9
  %59 = sext i8 %58 to i64
  %60 = add nsw i64 %59, -97
  %61 = getelementptr inbounds [27 x i32], [27 x i32]* %3, i64 0, i64 %60
  %62 = load i32, i32* %61, align 4, !tbaa !5
  %63 = icmp eq i32 %62, 1
  %64 = add nuw i64 %56, 1
  br i1 %63, label %65, label %53

65:                                               ; preds = %55
  %66 = sext i8 %58 to i32
  %67 = call i32 (i8*, ...) @printf(i8* nonnull dereferenceable(1) getelementptr inbounds ([4 x i8], [4 x i8]* @.str.2, i64 0, i64 0), i32 %66)
  br label %70

68:                                               ; preds = %53, %10, %31
  %69 = call i32 @puts(i8* nonnull dereferenceable(1) getelementptr inbounds ([3 x i8], [3 x i8]* @str, i64 0, i64 0))
  br label %70

70:                                               ; preds = %65, %68
  call void @llvm.lifetime.end.p0i8(i64 108, i8* nonnull %7) #6
  %71 = add nuw nsw i32 %11, 1
  %72 = load i32, i32* %1, align 4, !tbaa !5
  %73 = icmp slt i32 %71, %72
  br i1 %73, label %10, label %74, !llvm.loop !13

74:                                               ; preds = %70, %0
  call void @llvm.lifetime.end.p0i8(i64 1001, i8* nonnull %5) #6
  call void @llvm.lifetime.end.p0i8(i64 4, i8* nonnull %4) #6
  ret i32 0
}

; Function Attrs: argmemonly mustprogress nofree nosync nounwind willreturn
declare void @llvm.lifetime.start.p0i8(i64 immarg, i8* nocapture) #1

; Function Attrs: nofree nounwind
declare noundef i32 @__isoc99_scanf(i8* nocapture noundef readonly, ...) local_unnamed_addr #2

; Function Attrs: argmemonly mustprogress nofree nounwind willreturn writeonly
declare void @llvm.memset.p0i8.i64(i8* nocapture writeonly, i8, i64, i1 immarg) #3

; Function Attrs: argmemonly mustprogress nofree nounwind readonly willreturn
declare i64 @strlen(i8* nocapture) local_unnamed_addr #4

; Function Attrs: nofree nounwind
declare noundef i32 @printf(i8* nocapture noundef readonly, ...) local_unnamed_addr #2

; Function Attrs: argmemonly mustprogress nofree nosync nounwind willreturn
declare void @llvm.lifetime.end.p0i8(i64 immarg, i8* nocapture) #1

; Function Attrs: nofree nounwind
declare noundef i32 @puts(i8* nocapture noundef readonly) local_unnamed_addr #5


!llvm.module.flags = !{!0, !1, !2, !3}
!llvm.ident = !{!4}

!0 = !{i32 1, !"wchar_size", i32 4}
!1 = !{i32 7, !"PIC Level", i32 2}
!2 = !{i32 7, !"PIE Level", i32 2}
!3 = !{i32 7, !"uwtable", i32 1}
!4 = !{!"clang version 13.0.0"}
!5 = !{!6, !6, i64 0}
!6 = !{!"int", !7, i64 0}
!7 = !{!"omnipotent char", !8, i64 0}
!8 = !{!"Simple C/C++ TBAA"}
!9 = !{!7, !7, i64 0}
!10 = distinct !{!10, !11}
!11 = !{!"llvm.loop.mustprogress"}
!12 = distinct !{!12, !11}
!13 = distinct !{!13, !11}
